target datalayout = "e-m:e-p270:32:32-p271:32:32-p272:64:64-i64:64-i128:128-f80:128-n8:16:32:64-S128"
target triple = "x86_64-pc-linux-gnu"

%class.ObjectDescriptionBuilder = type { [100 x i8], i64 }

; Function Attrs: mustprogress nounwind uwtable
define hidden noundef ptr @_ZN24ObjectDescriptionBuilder11descriptionEv(ptr noundef nonnull align 8 dereferenceable(112) %0) #1 align 2 {
  %2 = alloca ptr, align 8
  %3 = alloca ptr, align 8
  %4 = alloca i64, align 8
  %5 = alloca ptr, align 8
  store ptr %0, ptr %3, align 8
  %6 = load ptr, ptr %3, align 8
  %7 = getelementptr inbounds %class.ObjectDescriptionBuilder, ptr %6, i32 0, i32 0
  %8 = getelementptr inbounds [100 x i8], ptr %7, i64 0, i64 0
  %9 = load i8, ptr %8, align 8
  %10 = sext i8 %9 to i32
  %11 = icmp eq i32 %10, 0
  br i1 %11, label %12, label %13

12:                                               ; preds = %1
  store ptr null, ptr %2, align 8
  br label %28

13:                                               ; preds = %1
  %14 = getelementptr inbounds %class.ObjectDescriptionBuilder, ptr %6, i32 0, i32 0
  %15 = getelementptr inbounds [100 x i8], ptr %14, i64 0, i64 0
  %16 = call i64 @strlen(ptr noundef %15) #6
  store i64 %16, ptr %4, align 8
  %17 = load i64, ptr %4, align 8
  %18 = add i64 %17, 1
  %19 = mul i64 %18, 1
  %20 = call noundef ptr @_Z23resource_allocate_bytesmN17AllocFailStrategy13AllocFailEnumE(i64 noundef %19, i32 noundef 0)
  store ptr %20, ptr %5, align 8
  %21 = load ptr, ptr %5, align 8
  %22 = getelementptr inbounds %class.ObjectDescriptionBuilder, ptr %6, i32 0, i32 0
  %23 = getelementptr inbounds [100 x i8], ptr %22, i64 0, i64 0
  %24 = load i64, ptr %4, align 8
  %25 = add i64 %24, 1
  %26 = call ptr @strncpy(ptr noundef %21, ptr noundef %23, i64 noundef %25) #7
  %27 = load ptr, ptr %5, align 8
  store ptr %27, ptr %2, align 8
  br label %28

28:                                               ; preds = %13, %12
  %29 = load ptr, ptr %2, align 8
  ret ptr %29
}