; Function Attrs: mustprogress nounwind uwtable
define hidden noundef ptr @_ZN24ObjectDescriptionBuilder11descriptionEv(ptr nocapture noundef nonnull readonly align 8 dereferenceable(112) %0) local_unnamed_addr #1 align 2 {
  %2 = load i8, ptr %0, align 8
  %3 = icmp eq i8 %2, 0
  br i1 %3, label %9, label %4

4:                                                ; preds = %1
  %5 = tail call i64 @strlen(ptr noundef nonnull dereferenceable(1) %0) #11
  %6 = add i64 %5, 1
  %7 = tail call noundef ptr @_Z23resource_allocate_bytesmN17AllocFailStrategy13AllocFailEnumE(i64 noundef %6, i32 noundef 0) #10
  %8 = tail call ptr @strncpy(ptr noundef %7, ptr noundef nonnull %0, i64 noundef %6) #10
  br label %9

9:                                                ; preds = %1, %4
  %.0 = phi ptr [ %7, %4 ], [ null, %1 ]
  ret ptr %.0
}